target datalayout = "e-m:e-p270:32:32-p271:32:32-p272:64:64-i64:64-i128:128-f80:128-n8:16:32:64-S128"
target triple = "x86_64-pc-linux-gnu"

%struct.ERR_string_data_st = type { i64, ptr }

@err_string_lock = internal global ptr null, align 8
@int_error_hash = internal global ptr null, align 8

; Function Attrs: inlinehint nounwind uwtable
define internal ptr @ossl_check_ERR_STRING_DATA_lh_plain_type(ptr noundef %0) #2 {
  %2 = alloca ptr, align 8
  store ptr %0, ptr %2, align 8, !tbaa !19
  %3 = load ptr, ptr %2, align 8, !tbaa !19
  ret ptr %3
}

; Function Attrs: inlinehint nounwind uwtable
define internal ptr @ossl_check_ERR_STRING_DATA_lh_type(ptr noundef %0) #2 {
  %2 = alloca ptr, align 8
  store ptr %0, ptr %2, align 8, !tbaa !17
  %3 = load ptr, ptr %2, align 8, !tbaa !17
  ret ptr %3
}

; Function Attrs: nounwind uwtable
define internal i32 @err_load_strings(ptr noundef %0) #0 {
  %2 = alloca i32, align 4
  %3 = alloca ptr, align 8
  store ptr %0, ptr %3, align 8, !tbaa !19
  %4 = load ptr, ptr @err_string_lock, align 8, !tbaa !16
  %5 = call i32 @CRYPTO_THREAD_write_lock(ptr noundef %4)
  %6 = icmp ne i32 %5, 0
  br i1 %6, label %8, label %7

7:                                                ; preds = %1
  store i32 0, ptr %2, align 4
  br label %26

8:                                                ; preds = %1
  br label %9

9:                                                ; preds = %20, %8
  %10 = load ptr, ptr %3, align 8, !tbaa !19
  %11 = getelementptr inbounds nuw %struct.ERR_string_data_st, ptr %10, i32 0, i32 0
  %12 = load i64, ptr %11, align 8, !tbaa !21
  %13 = icmp ne i64 %12, 0
  br i1 %13, label %14, label %23

14:                                               ; preds = %9
  %15 = load ptr, ptr @int_error_hash, align 8, !tbaa !17
  %16 = call ptr @ossl_check_ERR_STRING_DATA_lh_type(ptr noundef %15)
  %17 = load ptr, ptr %3, align 8, !tbaa !19
  %18 = call ptr @ossl_check_ERR_STRING_DATA_lh_plain_type(ptr noundef %17)
  %19 = call ptr @OPENSSL_LH_insert(ptr noundef %16, ptr noundef %18)
  br label %20

20:                                               ; preds = %14
  %21 = load ptr, ptr %3, align 8, !tbaa !19
  %22 = getelementptr inbounds nuw %struct.ERR_string_data_st, ptr %21, i32 1
  store ptr %22, ptr %3, align 8, !tbaa !19
  br label %9, !llvm.loop !23

23:                                               ; preds = %9
  %24 = load ptr, ptr @err_string_lock, align 8, !tbaa !16
  %25 = call i32 @CRYPTO_THREAD_unlock(ptr noundef %24)
  store i32 1, ptr %2, align 4
  br label %26

26:                                               ; preds = %23, %7
  %27 = load i32, ptr %2, align 4
  ret i32 %27
}

; Function Attrs: nounwind uwtable
define i32 @ERR_load_strings_const(ptr noundef %0) #0 {
  %2 = alloca i32, align 4
  %3 = alloca ptr, align 8
  store ptr %0, ptr %3, align 8, !tbaa !19
  %4 = call i32 @ossl_err_load_ERR_strings()
  %5 = icmp eq i32 %4, 0
  br i1 %5, label %6, label %7

6:                                                ; preds = %1
  store i32 0, ptr %2, align 4
  br label %10

7:                                                ; preds = %1
  %8 = load ptr, ptr %3, align 8, !tbaa !19
  %9 = call i32 @err_load_strings(ptr noundef %8)
  store i32 1, ptr %2, align 4
  br label %10

10:                                               ; preds = %7, %6
  %11 = load i32, ptr %2, align 4
  ret i32 %11
}