; Function Attrs: nounwind uwtable
define range(i32 0, 2) i32 @ERR_load_strings_const(ptr noundef %0) local_unnamed_addr #0 {
  %2 = tail call i32 @ossl_err_load_ERR_strings()
  %3 = icmp eq i32 %2, 0
  br i1 %3, label %err_load_strings.exit, label %4

4:                                                ; preds = %1
  %5 = load ptr, ptr @err_string_lock, align 8, !tbaa !14
  %6 = tail call i32 @CRYPTO_THREAD_write_lock(ptr noundef %5) #10
  %.not.i = icmp eq i32 %6, 0
  br i1 %.not.i, label %err_load_strings.exit, label %.preheader.i

.preheader.i:                                     ; preds = %4
  %7 = load i64, ptr %0, align 8, !tbaa !17
  %.not45.i = icmp eq i64 %7, 0
  br i1 %.not45.i, label %._crit_edge.i, label %.lr.ph.i

.lr.ph.i:                                         ; preds = %.preheader.i, %.lr.ph.i
  %.06.i = phi ptr [ %10, %.lr.ph.i ], [ %0, %.preheader.i ]
  %8 = load ptr, ptr @int_error_hash, align 8, !tbaa !15
  %9 = tail call ptr @OPENSSL_LH_insert(ptr noundef %8, ptr noundef nonnull %.06.i) #10
  %10 = getelementptr inbounds nuw i8, ptr %.06.i, i64 16
  %11 = load i64, ptr %10, align 8, !tbaa !17
  %.not4.i = icmp eq i64 %11, 0
  br i1 %.not4.i, label %._crit_edge.i, label %.lr.ph.i, !llvm.loop !19

._crit_edge.i:                                    ; preds = %.lr.ph.i, %.preheader.i
  %12 = load ptr, ptr @err_string_lock, align 8, !tbaa !14
  %13 = tail call i32 @CRYPTO_THREAD_unlock(ptr noundef %12) #10
  br label %err_load_strings.exit

err_load_strings.exit:                            ; preds = %._crit_edge.i, %4, %1
  %.0 = phi i32 [ 0, %1 ], [ 1, %4 ], [ 1, %._crit_edge.i ]
  ret i32 %.0
}